target datalayout = "e-m:e-p270:32:32-p271:32:32-p272:64:64-i64:64-i128:128-f80:128-n8:16:32:64-S128"
target triple = "x86_64-pc-linux-gnu"

%class.b3Vector3 = type { %union.anon }
%union.anon = type { [4 x float] }
%struct.b3DynamicBvh = type { ptr, ptr, i32, i32, i32, [4 x i8], %class.b3AlignedObjectArray, %class.b3AlignedObjectArray.0 }
%class.b3AlignedObjectArray = type <{ [4 x i8], i32, i32, [4 x i8], ptr, i8, [7 x i8] }>
%class.b3AlignedObjectArray.0 = type <{ [4 x i8], i32, i32, [4 x i8], ptr, i8, [7 x i8] }>
%struct.b3DbvtNode = type { %struct.b3DbvtAabbMm, ptr, %union.anon.4, [8 x i8] }
%struct.b3DbvtAabbMm = type { %class.b3Vector3, %class.b3Vector3 }
%union.anon.4 = type { [2 x ptr] }
%struct.anon = type { float, float, float, float }

; Function Attrs: inlinehint mustprogress nounwind uwtable
define linkonce_odr dso_local void @_ZN9b3Vector34setZEf(ptr noundef nonnull align 16 dereferenceable(16) %0, float noundef %1) #6 comdat align 2 {
  %3 = alloca ptr, align 8
  %4 = alloca float, align 4
  store ptr %0, ptr %3, align 8, !tbaa !65
  store float %1, ptr %4, align 4, !tbaa !40
  %5 = load ptr, ptr %3, align 8
  %6 = load float, ptr %4, align 4, !tbaa !40
  %7 = getelementptr inbounds nuw %class.b3Vector3, ptr %5, i32 0, i32 0
  %8 = getelementptr inbounds [4 x float], ptr %7, i64 0, i64 2
  store float %6, ptr %8, align 8, !tbaa !29
  ret void
}

; Function Attrs: inlinehint mustprogress nounwind uwtable
define linkonce_odr dso_local void @_ZN9b3Vector34setYEf(ptr noundef nonnull align 16 dereferenceable(16) %0, float noundef %1) #6 comdat align 2 {
  %3 = alloca ptr, align 8
  %4 = alloca float, align 4
  store ptr %0, ptr %3, align 8, !tbaa !65
  store float %1, ptr %4, align 4, !tbaa !40
  %5 = load ptr, ptr %3, align 8
  %6 = load float, ptr %4, align 4, !tbaa !40
  %7 = getelementptr inbounds nuw %class.b3Vector3, ptr %5, i32 0, i32 0
  %8 = getelementptr inbounds [4 x float], ptr %7, i64 0, i64 1
  store float %6, ptr %8, align 4, !tbaa !29
  ret void
}

; Function Attrs: inlinehint mustprogress nounwind uwtable
define linkonce_odr dso_local void @_ZN9b3Vector34setXEf(ptr noundef nonnull align 16 dereferenceable(16) %0, float noundef %1) #6 comdat align 2 {
  %3 = alloca ptr, align 8
  %4 = alloca float, align 4
  store ptr %0, ptr %3, align 8, !tbaa !65
  store float %1, ptr %4, align 4, !tbaa !40
  %5 = load ptr, ptr %3, align 8
  %6 = load float, ptr %4, align 4, !tbaa !40
  %7 = getelementptr inbounds nuw %class.b3Vector3, ptr %5, i32 0, i32 0
  %8 = getelementptr inbounds [4 x float], ptr %7, i64 0, i64 0
  store float %6, ptr %8, align 16, !tbaa !29
  ret void
}

; Function Attrs: inlinehint mustprogress nounwind uwtable
define linkonce_odr dso_local noundef ptr @_ZNK9b3Vector3cvPKfEv(ptr noundef nonnull align 16 dereferenceable(16) %0) #6 comdat align 2 {
  %2 = alloca ptr, align 8
  store ptr %0, ptr %2, align 8, !tbaa !65
  %3 = load ptr, ptr %2, align 8
  %4 = getelementptr inbounds nuw %class.b3Vector3, ptr %3, i32 0, i32 0
  %5 = getelementptr inbounds [4 x float], ptr %4, i64 0, i64 0
  ret ptr %5
}

; Function Attrs: mustprogress uwtable
define dso_local void @_ZN12b3DynamicBvh6updateEP10b3DbvtNodeR12b3DbvtAabbMm(ptr noundef nonnull align 8 dereferenceable(96) %0, ptr noundef %1, ptr noundef nonnull align 16 dereferenceable(32) %2) #0 align 2 {
  %4 = alloca ptr, align 8
  %5 = alloca ptr, align 8
  %6 = alloca ptr, align 8
  %7 = alloca ptr, align 8
  %8 = alloca i32, align 4
  store ptr %0, ptr %4, align 8, !tbaa !4
  store ptr %1, ptr %5, align 8, !tbaa !28
  store ptr %2, ptr %6, align 8, !tbaa !57
  %9 = load ptr, ptr %4, align 8
  call void @llvm.lifetime.start.p0(i64 8, ptr %7) #12
  %10 = load ptr, ptr %5, align 8, !tbaa !28
  %11 = call noundef ptr @_ZL12b3RemoveLeafP12b3DynamicBvhP10b3DbvtNode(ptr noundef %9, ptr noundef %10)
  store ptr %11, ptr %7, align 8, !tbaa !28
  %12 = load ptr, ptr %7, align 8, !tbaa !28
  %13 = icmp ne ptr %12, null
  br i1 %13, label %14, label %44

14:                                               ; preds = %3
  %15 = getelementptr inbounds nuw %struct.b3DynamicBvh, ptr %9, i32 0, i32 2
  %16 = load i32, ptr %15, align 8, !tbaa !21
  %17 = icmp sge i32 %16, 0
  br i1 %17, label %18, label %40

18:                                               ; preds = %14
  call void @llvm.lifetime.start.p0(i64 4, ptr %8) #12
  store i32 0, ptr %8, align 4, !tbaa !32
  br label %19

19:                                               ; preds = %36, %18
  %20 = load i32, ptr %8, align 4, !tbaa !32
  %21 = getelementptr inbounds nuw %struct.b3DynamicBvh, ptr %9, i32 0, i32 2
  %22 = load i32, ptr %21, align 8, !tbaa !21
  %23 = icmp slt i32 %20, %22
  br i1 %23, label %24, label %29

24:                                               ; preds = %19
  %25 = load ptr, ptr %7, align 8, !tbaa !28
  %26 = getelementptr inbounds nuw %struct.b3DbvtNode, ptr %25, i32 0, i32 1
  %27 = load ptr, ptr %26, align 16, !tbaa !45
  %28 = icmp ne ptr %27, null
  br label %29

29:                                               ; preds = %24, %19
  %30 = phi i1 [ false, %19 ], [ %28, %24 ]
  br i1 %30, label %32, label %31

31:                                               ; preds = %29
  call void @llvm.lifetime.end.p0(i64 4, ptr %8) #12
  br label %39

32:                                               ; preds = %29
  %33 = load ptr, ptr %7, align 8, !tbaa !28
  %34 = getelementptr inbounds nuw %struct.b3DbvtNode, ptr %33, i32 0, i32 1
  %35 = load ptr, ptr %34, align 16, !tbaa !45
  store ptr %35, ptr %7, align 8, !tbaa !28
  br label %36

36:                                               ; preds = %32
  %37 = load i32, ptr %8, align 4, !tbaa !32
  %38 = add nsw i32 %37, 1
  store i32 %38, ptr %8, align 4, !tbaa !32
  br label %19, !llvm.loop !64

39:                                               ; preds = %31
  br label %43

40:                                               ; preds = %14
  %41 = getelementptr inbounds nuw %struct.b3DynamicBvh, ptr %9, i32 0, i32 0
  %42 = load ptr, ptr %41, align 8, !tbaa !9
  store ptr %42, ptr %7, align 8, !tbaa !28
  br label %43

43:                                               ; preds = %40, %39
  br label %44

44:                                               ; preds = %43, %3
  %45 = load ptr, ptr %6, align 8, !tbaa !57
  %46 = load ptr, ptr %5, align 8, !tbaa !28
  %47 = getelementptr inbounds nuw %struct.b3DbvtNode, ptr %46, i32 0, i32 0
  call void @llvm.memcpy.p0.p0.i64(ptr align 16 %47, ptr align 16 %45, i64 32, i1 false), !tbaa.struct !60
  %48 = load ptr, ptr %7, align 8, !tbaa !28
  %49 = load ptr, ptr %5, align 8, !tbaa !28
  call void @_ZL12b3InsertLeafP12b3DynamicBvhP10b3DbvtNodeS2_(ptr noundef %9, ptr noundef %48, ptr noundef %49)
  call void @llvm.lifetime.end.p0(i64 8, ptr %7) #12
  ret void
}

; Function Attrs: inlinehint mustprogress uwtable
define linkonce_odr dso_local void @_ZN12b3DbvtAabbMm12SignedExpandERK9b3Vector3(ptr noundef nonnull align 16 dereferenceable(32) %0, ptr noundef nonnull align 16 dereferenceable(16) %1) #4 comdat align 2 {
  %3 = alloca ptr, align 8
  %4 = alloca ptr, align 8
  store ptr %0, ptr %3, align 8, !tbaa !57
  store ptr %1, ptr %4, align 8, !tbaa !65
  %5 = load ptr, ptr %3, align 8
  %6 = load ptr, ptr %4, align 8, !tbaa !65
  %7 = getelementptr inbounds nuw %class.b3Vector3, ptr %6, i32 0, i32 0
  %8 = getelementptr inbounds nuw %struct.anon, ptr %7, i32 0, i32 0
  %9 = load float, ptr %8, align 16, !tbaa !29
  %10 = fcmp ogt float %9, 0.000000e+00
  br i1 %10, label %11, label %22

11:                                               ; preds = %2
  %12 = getelementptr inbounds nuw %struct.b3DbvtAabbMm, ptr %5, i32 0, i32 1
  %13 = getelementptr inbounds nuw %struct.b3DbvtAabbMm, ptr %5, i32 0, i32 1
  %14 = getelementptr inbounds nuw %class.b3Vector3, ptr %13, i32 0, i32 0
  %15 = getelementptr inbounds nuw %struct.anon, ptr %14, i32 0, i32 0
  %16 = load float, ptr %15, align 16, !tbaa !29
  %17 = load ptr, ptr %4, align 8, !tbaa !65
  %18 = call noundef ptr @_ZNK9b3Vector3cvPKfEv(ptr noundef nonnull align 16 dereferenceable(16) %17)
  %19 = getelementptr inbounds float, ptr %18, i64 0
  %20 = load float, ptr %19, align 4, !tbaa !40
  %21 = fadd float %16, %20
  call void @_ZN9b3Vector34setXEf(ptr noundef nonnull align 16 dereferenceable(16) %12, float noundef %21)
  br label %33

22:                                               ; preds = %2
  %23 = getelementptr inbounds nuw %struct.b3DbvtAabbMm, ptr %5, i32 0, i32 0
  %24 = getelementptr inbounds nuw %struct.b3DbvtAabbMm, ptr %5, i32 0, i32 0
  %25 = getelementptr inbounds nuw %class.b3Vector3, ptr %24, i32 0, i32 0
  %26 = getelementptr inbounds nuw %struct.anon, ptr %25, i32 0, i32 0
  %27 = load float, ptr %26, align 16, !tbaa !29
  %28 = load ptr, ptr %4, align 8, !tbaa !65
  %29 = call noundef ptr @_ZNK9b3Vector3cvPKfEv(ptr noundef nonnull align 16 dereferenceable(16) %28)
  %30 = getelementptr inbounds float, ptr %29, i64 0
  %31 = load float, ptr %30, align 4, !tbaa !40
  %32 = fadd float %27, %31
  call void @_ZN9b3Vector34setXEf(ptr noundef nonnull align 16 dereferenceable(16) %23, float noundef %32)
  br label %33

33:                                               ; preds = %22, %11
  %34 = load ptr, ptr %4, align 8, !tbaa !65
  %35 = getelementptr inbounds nuw %class.b3Vector3, ptr %34, i32 0, i32 0
  %36 = getelementptr inbounds nuw %struct.anon, ptr %35, i32 0, i32 1
  %37 = load float, ptr %36, align 4, !tbaa !29
  %38 = fcmp ogt float %37, 0.000000e+00
  br i1 %38, label %39, label %50

39:                                               ; preds = %33
  %40 = getelementptr inbounds nuw %struct.b3DbvtAabbMm, ptr %5, i32 0, i32 1
  %41 = getelementptr inbounds nuw %struct.b3DbvtAabbMm, ptr %5, i32 0, i32 1
  %42 = getelementptr inbounds nuw %class.b3Vector3, ptr %41, i32 0, i32 0
  %43 = getelementptr inbounds nuw %struct.anon, ptr %42, i32 0, i32 1
  %44 = load float, ptr %43, align 4, !tbaa !29
  %45 = load ptr, ptr %4, align 8, !tbaa !65
  %46 = call noundef ptr @_ZNK9b3Vector3cvPKfEv(ptr noundef nonnull align 16 dereferenceable(16) %45)
  %47 = getelementptr inbounds float, ptr %46, i64 1
  %48 = load float, ptr %47, align 4, !tbaa !40
  %49 = fadd float %44, %48
  call void @_ZN9b3Vector34setYEf(ptr noundef nonnull align 16 dereferenceable(16) %40, float noundef %49)
  br label %61

50:                                               ; preds = %33
  %51 = getelementptr inbounds nuw %struct.b3DbvtAabbMm, ptr %5, i32 0, i32 0
  %52 = getelementptr inbounds nuw %struct.b3DbvtAabbMm, ptr %5, i32 0, i32 0
  %53 = getelementptr inbounds nuw %class.b3Vector3, ptr %52, i32 0, i32 0
  %54 = getelementptr inbounds nuw %struct.anon, ptr %53, i32 0, i32 1
  %55 = load float, ptr %54, align 4, !tbaa !29
  %56 = load ptr, ptr %4, align 8, !tbaa !65
  %57 = call noundef ptr @_ZNK9b3Vector3cvPKfEv(ptr noundef nonnull align 16 dereferenceable(16) %56)
  %58 = getelementptr inbounds float, ptr %57, i64 1
  %59 = load float, ptr %58, align 4, !tbaa !40
  %60 = fadd float %55, %59
  call void @_ZN9b3Vector34setYEf(ptr noundef nonnull align 16 dereferenceable(16) %51, float noundef %60)
  br label %61

61:                                               ; preds = %50, %39
  %62 = load ptr, ptr %4, align 8, !tbaa !65
  %63 = getelementptr inbounds nuw %class.b3Vector3, ptr %62, i32 0, i32 0
  %64 = getelementptr inbounds nuw %struct.anon, ptr %63, i32 0, i32 2
  %65 = load float, ptr %64, align 8, !tbaa !29
  %66 = fcmp ogt float %65, 0.000000e+00
  br i1 %66, label %67, label %78

67:                                               ; preds = %61
  %68 = getelementptr inbounds nuw %struct.b3DbvtAabbMm, ptr %5, i32 0, i32 1
  %69 = getelementptr inbounds nuw %struct.b3DbvtAabbMm, ptr %5, i32 0, i32 1
  %70 = getelementptr inbounds nuw %class.b3Vector3, ptr %69, i32 0, i32 0
  %71 = getelementptr inbounds nuw %struct.anon, ptr %70, i32 0, i32 2
  %72 = load float, ptr %71, align 8, !tbaa !29
  %73 = load ptr, ptr %4, align 8, !tbaa !65
  %74 = call noundef ptr @_ZNK9b3Vector3cvPKfEv(ptr noundef nonnull align 16 dereferenceable(16) %73)
  %75 = getelementptr inbounds float, ptr %74, i64 2
  %76 = load float, ptr %75, align 4, !tbaa !40
  %77 = fadd float %72, %76
  call void @_ZN9b3Vector34setZEf(ptr noundef nonnull align 16 dereferenceable(16) %68, float noundef %77)
  br label %89

78:                                               ; preds = %61
  %79 = getelementptr inbounds nuw %struct.b3DbvtAabbMm, ptr %5, i32 0, i32 0
  %80 = getelementptr inbounds nuw %struct.b3DbvtAabbMm, ptr %5, i32 0, i32 0
  %81 = getelementptr inbounds nuw %class.b3Vector3, ptr %80, i32 0, i32 0
  %82 = getelementptr inbounds nuw %struct.anon, ptr %81, i32 0, i32 2
  %83 = load float, ptr %82, align 8, !tbaa !29
  %84 = load ptr, ptr %4, align 8, !tbaa !65
  %85 = call noundef ptr @_ZNK9b3Vector3cvPKfEv(ptr noundef nonnull align 16 dereferenceable(16) %84)
  %86 = getelementptr inbounds float, ptr %85, i64 2
  %87 = load float, ptr %86, align 4, !tbaa !40
  %88 = fadd float %83, %87
  call void @_ZN9b3Vector34setZEf(ptr noundef nonnull align 16 dereferenceable(16) %79, float noundef %88)
  br label %89

89:                                               ; preds = %78, %67
  ret void
}

; Function Attrs: inlinehint mustprogress nounwind uwtable
define linkonce_odr dso_local noundef zeroext i1 @_ZNK12b3DbvtAabbMm7ContainERKS_(ptr noundef nonnull align 16 dereferenceable(32) %0, ptr noundef nonnull align 16 dereferenceable(32) %1) #6 comdat align 2 {
  %3 = alloca ptr, align 8
  %4 = alloca ptr, align 8
  store ptr %0, ptr %3, align 8, !tbaa !57
  store ptr %1, ptr %4, align 8, !tbaa !57
  %5 = load ptr, ptr %3, align 8
  %6 = getelementptr inbounds nuw %struct.b3DbvtAabbMm, ptr %5, i32 0, i32 0
  %7 = getelementptr inbounds nuw %class.b3Vector3, ptr %6, i32 0, i32 0
  %8 = getelementptr inbounds nuw %struct.anon, ptr %7, i32 0, i32 0
  %9 = load float, ptr %8, align 16, !tbaa !29
  %10 = load ptr, ptr %4, align 8, !tbaa !57
  %11 = getelementptr inbounds nuw %struct.b3DbvtAabbMm, ptr %10, i32 0, i32 0
  %12 = getelementptr inbounds nuw %class.b3Vector3, ptr %11, i32 0, i32 0
  %13 = getelementptr inbounds nuw %struct.anon, ptr %12, i32 0, i32 0
  %14 = load float, ptr %13, align 16, !tbaa !29
  %15 = fcmp ole float %9, %14
  br i1 %15, label %16, label %71

16:                                               ; preds = %2
  %17 = getelementptr inbounds nuw %struct.b3DbvtAabbMm, ptr %5, i32 0, i32 0
  %18 = getelementptr inbounds nuw %class.b3Vector3, ptr %17, i32 0, i32 0
  %19 = getelementptr inbounds nuw %struct.anon, ptr %18, i32 0, i32 1
  %20 = load float, ptr %19, align 4, !tbaa !29
  %21 = load ptr, ptr %4, align 8, !tbaa !57
  %22 = getelementptr inbounds nuw %struct.b3DbvtAabbMm, ptr %21, i32 0, i32 0
  %23 = getelementptr inbounds nuw %class.b3Vector3, ptr %22, i32 0, i32 0
  %24 = getelementptr inbounds nuw %struct.anon, ptr %23, i32 0, i32 1
  %25 = load float, ptr %24, align 4, !tbaa !29
  %26 = fcmp ole float %20, %25
  br i1 %26, label %27, label %71

27:                                               ; preds = %16
  %28 = getelementptr inbounds nuw %struct.b3DbvtAabbMm, ptr %5, i32 0, i32 0
  %29 = getelementptr inbounds nuw %class.b3Vector3, ptr %28, i32 0, i32 0
  %30 = getelementptr inbounds nuw %struct.anon, ptr %29, i32 0, i32 2
  %31 = load float, ptr %30, align 8, !tbaa !29
  %32 = load ptr, ptr %4, align 8, !tbaa !57
  %33 = getelementptr inbounds nuw %struct.b3DbvtAabbMm, ptr %32, i32 0, i32 0
  %34 = getelementptr inbounds nuw %class.b3Vector3, ptr %33, i32 0, i32 0
  %35 = getelementptr inbounds nuw %struct.anon, ptr %34, i32 0, i32 2
  %36 = load float, ptr %35, align 8, !tbaa !29
  %37 = fcmp ole float %31, %36
  br i1 %37, label %38, label %71

38:                                               ; preds = %27
  %39 = getelementptr inbounds nuw %struct.b3DbvtAabbMm, ptr %5, i32 0, i32 1
  %40 = getelementptr inbounds nuw %class.b3Vector3, ptr %39, i32 0, i32 0
  %41 = getelementptr inbounds nuw %struct.anon, ptr %40, i32 0, i32 0
  %42 = load float, ptr %41, align 16, !tbaa !29
  %43 = load ptr, ptr %4, align 8, !tbaa !57
  %44 = getelementptr inbounds nuw %struct.b3DbvtAabbMm, ptr %43, i32 0, i32 1
  %45 = getelementptr inbounds nuw %class.b3Vector3, ptr %44, i32 0, i32 0
  %46 = getelementptr inbounds nuw %struct.anon, ptr %45, i32 0, i32 0
  %47 = load float, ptr %46, align 16, !tbaa !29
  %48 = fcmp oge float %42, %47
  br i1 %48, label %49, label %71

49:                                               ; preds = %38
  %50 = getelementptr inbounds nuw %struct.b3DbvtAabbMm, ptr %5, i32 0, i32 1
  %51 = getelementptr inbounds nuw %class.b3Vector3, ptr %50, i32 0, i32 0
  %52 = getelementptr inbounds nuw %struct.anon, ptr %51, i32 0, i32 1
  %53 = load float, ptr %52, align 4, !tbaa !29
  %54 = load ptr, ptr %4, align 8, !tbaa !57
  %55 = getelementptr inbounds nuw %struct.b3DbvtAabbMm, ptr %54, i32 0, i32 1
  %56 = getelementptr inbounds nuw %class.b3Vector3, ptr %55, i32 0, i32 0
  %57 = getelementptr inbounds nuw %struct.anon, ptr %56, i32 0, i32 1
  %58 = load float, ptr %57, align 4, !tbaa !29
  %59 = fcmp oge float %53, %58
  br i1 %59, label %60, label %71

60:                                               ; preds = %49
  %61 = getelementptr inbounds nuw %struct.b3DbvtAabbMm, ptr %5, i32 0, i32 1
  %62 = getelementptr inbounds nuw %class.b3Vector3, ptr %61, i32 0, i32 0
  %63 = getelementptr inbounds nuw %struct.anon, ptr %62, i32 0, i32 2
  %64 = load float, ptr %63, align 8, !tbaa !29
  %65 = load ptr, ptr %4, align 8, !tbaa !57
  %66 = getelementptr inbounds nuw %struct.b3DbvtAabbMm, ptr %65, i32 0, i32 1
  %67 = getelementptr inbounds nuw %class.b3Vector3, ptr %66, i32 0, i32 0
  %68 = getelementptr inbounds nuw %struct.anon, ptr %67, i32 0, i32 2
  %69 = load float, ptr %68, align 8, !tbaa !29
  %70 = fcmp oge float %64, %69
  br label %71

71:                                               ; preds = %60, %49, %38, %27, %16, %2
  %72 = phi i1 [ false, %49 ], [ false, %38 ], [ false, %27 ], [ false, %16 ], [ false, %2 ], [ %70, %60 ]
  ret i1 %72
}

; Function Attrs: mustprogress uwtable
define dso_local noundef zeroext i1 @_ZN12b3DynamicBvh6updateEP10b3DbvtNodeR12b3DbvtAabbMmRK9b3Vector3(ptr noundef nonnull align 8 dereferenceable(96) %0, ptr noundef %1, ptr noundef nonnull align 16 dereferenceable(32) %2, ptr noundef nonnull align 16 dereferenceable(16) %3) #0 align 2 {
  %5 = alloca i1, align 1
  %6 = alloca ptr, align 8
  %7 = alloca ptr, align 8
  %8 = alloca ptr, align 8
  %9 = alloca ptr, align 8
  store ptr %0, ptr %6, align 8, !tbaa !4
  store ptr %1, ptr %7, align 8, !tbaa !28
  store ptr %2, ptr %8, align 8, !tbaa !57
  store ptr %3, ptr %9, align 8, !tbaa !65
  %10 = load ptr, ptr %6, align 8
  %11 = load ptr, ptr %7, align 8, !tbaa !28
  %12 = getelementptr inbounds nuw %struct.b3DbvtNode, ptr %11, i32 0, i32 0
  %13 = load ptr, ptr %8, align 8, !tbaa !57
  %14 = call noundef zeroext i1 @_ZNK12b3DbvtAabbMm7ContainERKS_(ptr noundef nonnull align 16 dereferenceable(32) %12, ptr noundef nonnull align 16 dereferenceable(32) %13)
  br i1 %14, label %15, label %16

15:                                               ; preds = %4
  store i1 false, ptr %5, align 1
  br label %21

16:                                               ; preds = %4
  %17 = load ptr, ptr %8, align 8, !tbaa !57
  %18 = load ptr, ptr %9, align 8, !tbaa !65
  call void @_ZN12b3DbvtAabbMm12SignedExpandERK9b3Vector3(ptr noundef nonnull align 16 dereferenceable(32) %17, ptr noundef nonnull align 16 dereferenceable(16) %18)
  %19 = load ptr, ptr %7, align 8, !tbaa !28
  %20 = load ptr, ptr %8, align 8, !tbaa !57
  call void @_ZN12b3DynamicBvh6updateEP10b3DbvtNodeR12b3DbvtAabbMm(ptr noundef nonnull align 8 dereferenceable(96) %10, ptr noundef %19, ptr noundef nonnull align 16 dereferenceable(32) %20)
  store i1 true, ptr %5, align 1
  br label %21

21:                                               ; preds = %16, %15
  %22 = load i1, ptr %5, align 1
  ret i1 %22
}