; Function Attrs: mustprogress uwtable
define dso_local noundef zeroext i1 @_ZN12b3DynamicBvh6updateEP10b3DbvtNodeR12b3DbvtAabbMmRK9b3Vector3(ptr noundef nonnull align 8 captures(none) dereferenceable(96) %0, ptr noundef %1, ptr noundef nonnull align 16 captures(none) dereferenceable(32) %2, ptr noundef nonnull readonly align 16 captures(none) dereferenceable(16) %3) local_unnamed_addr #2 align 2 {
  %5 = load float, ptr %1, align 16, !tbaa !32
  %6 = load float, ptr %2, align 16, !tbaa !32
  %7 = fcmp ugt float %5, %6
  br i1 %7, label %_ZNK12b3DbvtAabbMm7ContainERKS_.exit.thread, label %8

8:                                                ; preds = %4
  %9 = getelementptr inbounds nuw i8, ptr %1, i64 4
  %10 = load float, ptr %9, align 4, !tbaa !32
  %11 = getelementptr inbounds nuw i8, ptr %2, i64 4
  %12 = load float, ptr %11, align 4, !tbaa !32
  %13 = fcmp ugt float %10, %12
  br i1 %13, label %_ZNK12b3DbvtAabbMm7ContainERKS_.exit.thread, label %14

14:                                               ; preds = %8
  %15 = getelementptr inbounds nuw i8, ptr %1, i64 8
  %16 = load float, ptr %15, align 8, !tbaa !32
  %17 = getelementptr inbounds nuw i8, ptr %2, i64 8
  %18 = load float, ptr %17, align 8, !tbaa !32
  %19 = fcmp ugt float %16, %18
  br i1 %19, label %_ZNK12b3DbvtAabbMm7ContainERKS_.exit.thread, label %20

20:                                               ; preds = %14
  %21 = getelementptr inbounds nuw i8, ptr %1, i64 16
  %22 = load float, ptr %21, align 16, !tbaa !32
  %23 = getelementptr inbounds nuw i8, ptr %2, i64 16
  %24 = load float, ptr %23, align 16, !tbaa !32
  %25 = fcmp ult float %22, %24
  br i1 %25, label %_ZNK12b3DbvtAabbMm7ContainERKS_.exit.thread, label %26

26:                                               ; preds = %20
  %27 = getelementptr inbounds nuw i8, ptr %1, i64 20
  %28 = load float, ptr %27, align 4, !tbaa !32
  %29 = getelementptr inbounds nuw i8, ptr %2, i64 20
  %30 = load float, ptr %29, align 4, !tbaa !32
  %31 = fcmp ult float %28, %30
  br i1 %31, label %_ZNK12b3DbvtAabbMm7ContainERKS_.exit.thread, label %_ZNK12b3DbvtAabbMm7ContainERKS_.exit

_ZNK12b3DbvtAabbMm7ContainERKS_.exit:             ; preds = %26
  %32 = getelementptr inbounds nuw i8, ptr %1, i64 24
  %33 = load float, ptr %32, align 8, !tbaa !32
  %34 = getelementptr inbounds nuw i8, ptr %2, i64 24
  %35 = load float, ptr %34, align 8, !tbaa !32
  %36 = fcmp ult float %33, %35
  br i1 %36, label %_ZNK12b3DbvtAabbMm7ContainERKS_.exit.thread, label %68

_ZNK12b3DbvtAabbMm7ContainERKS_.exit.thread:      ; preds = %4, %8, %14, %20, %26, %_ZNK12b3DbvtAabbMm7ContainERKS_.exit
  %37 = load float, ptr %3, align 16, !tbaa !32
  %38 = fcmp ogt float %37, 0.000000e+00
  br i1 %38, label %39, label %43

39:                                               ; preds = %_ZNK12b3DbvtAabbMm7ContainERKS_.exit.thread
  %40 = getelementptr inbounds nuw i8, ptr %2, i64 16
  %41 = load float, ptr %40, align 16, !tbaa !32
  %42 = fadd float %37, %41
  store float %42, ptr %40, align 16, !tbaa !32
  br label %_ZN12b3DbvtAabbMm12SignedExpandERK9b3Vector3.exit

43:                                               ; preds = %_ZNK12b3DbvtAabbMm7ContainERKS_.exit.thread
  %44 = fadd float %6, %37
  store float %44, ptr %2, align 16, !tbaa !32
  br label %_ZN12b3DbvtAabbMm12SignedExpandERK9b3Vector3.exit

_ZN12b3DbvtAabbMm12SignedExpandERK9b3Vector3.exit: ; preds = %39, %43
  %45 = getelementptr inbounds nuw i8, ptr %3, i64 4
  %46 = load float, ptr %45, align 4, !tbaa !32
  %47 = fcmp ogt float %46, 0.000000e+00
  %..i = select i1 %47, i64 20, i64 4
  %48 = getelementptr inbounds nuw i8, ptr %2, i64 %..i
  %49 = load float, ptr %48, align 4, !tbaa !32
  %50 = fadd float %46, %49
  store float %50, ptr %48, align 4, !tbaa !32
  %51 = getelementptr inbounds nuw i8, ptr %3, i64 8
  %52 = load float, ptr %51, align 8, !tbaa !32
  %53 = fcmp ogt float %52, 0.000000e+00
  %.sink15.i = select i1 %53, i64 24, i64 8
  %54 = getelementptr inbounds nuw i8, ptr %2, i64 %.sink15.i
  %55 = load float, ptr %54, align 8, !tbaa !32
  %56 = fadd float %52, %55
  store float %56, ptr %54, align 8, !tbaa !32
  %57 = tail call fastcc noundef ptr @_ZL12b3RemoveLeafP12b3DynamicBvhP10b3DbvtNode(ptr noundef nonnull align 8 dereferenceable(96) %0, ptr noundef nonnull %1)
  %.not.i = icmp eq ptr %57, null
  br i1 %.not.i, label %_ZN12b3DynamicBvh6updateEP10b3DbvtNodeR12b3DbvtAabbMm.exit, label %58

58:                                               ; preds = %_ZN12b3DbvtAabbMm12SignedExpandERK9b3Vector3.exit
  %59 = getelementptr inbounds nuw i8, ptr %0, i64 16
  %60 = load i32, ptr %59, align 8, !tbaa !23
  %61 = icmp sgt i32 %60, -1
  br i1 %61, label %.preheader.i, label %66

.preheader.i:                                     ; preds = %58
  %.not19.i = icmp eq i32 %60, 0
  br i1 %.not19.i, label %_ZN12b3DynamicBvh6updateEP10b3DbvtNodeR12b3DbvtAabbMm.exit, label %.lr.ph.i

62:                                               ; preds = %.lr.ph.i
  %63 = add nuw nsw i32 %.016.i, 1
  %exitcond.not.i = icmp eq i32 %63, %60
  br i1 %exitcond.not.i, label %_ZN12b3DynamicBvh6updateEP10b3DbvtNodeR12b3DbvtAabbMm.exit, label %.lr.ph.i, !llvm.loop !73

.lr.ph.i:                                         ; preds = %.preheader.i, %62
  %.016.i = phi i32 [ %63, %62 ], [ 0, %.preheader.i ]
  %.115.i = phi ptr [ %65, %62 ], [ %57, %.preheader.i ]
  %64 = getelementptr inbounds nuw i8, ptr %.115.i, i64 32
  %65 = load ptr, ptr %64, align 16, !tbaa !46
  %.not14.i = icmp eq ptr %65, null
  br i1 %.not14.i, label %_ZN12b3DynamicBvh6updateEP10b3DbvtNodeR12b3DbvtAabbMm.exit, label %62

66:                                               ; preds = %58
  %67 = load ptr, ptr %0, align 8, !tbaa !28
  br label %_ZN12b3DynamicBvh6updateEP10b3DbvtNodeR12b3DbvtAabbMm.exit

_ZN12b3DynamicBvh6updateEP10b3DbvtNodeR12b3DbvtAabbMm.exit: ; preds = %62, %.lr.ph.i, %_ZN12b3DbvtAabbMm12SignedExpandERK9b3Vector3.exit, %.preheader.i, %66
  %.010.i = phi ptr [ %67, %66 ], [ null, %_ZN12b3DbvtAabbMm12SignedExpandERK9b3Vector3.exit ], [ %57, %.preheader.i ], [ %.115.i, %.lr.ph.i ], [ %65, %62 ]
  tail call void @llvm.memcpy.p0.p0.i64(ptr noundef nonnull align 16 dereferenceable(32) %1, ptr noundef nonnull readonly align 16 dereferenceable(32) %2, i64 32, i1 false), !tbaa.struct !59
  tail call fastcc void @_ZL12b3InsertLeafP12b3DynamicBvhP10b3DbvtNodeS2_(ptr noundef nonnull align 8 dereferenceable(96) %0, ptr noundef %.010.i, ptr noundef nonnull %1)
  br label %68

68:                                               ; preds = %_ZNK12b3DbvtAabbMm7ContainERKS_.exit, %_ZN12b3DynamicBvh6updateEP10b3DbvtNodeR12b3DbvtAabbMm.exit
  %.0 = phi i1 [ false, %_ZNK12b3DbvtAabbMm7ContainERKS_.exit ], [ true, %_ZN12b3DynamicBvh6updateEP10b3DbvtNodeR12b3DbvtAabbMm.exit ]
  ret i1 %.0
}